target datalayout = "e-m:e-p270:32:32-p271:32:32-p272:64:64-i64:64-i128:128-f80:128-n8:16:32:64-S128"
target triple = "x86_64-pc-linux-gnu"

; Function Attrs: nounwind uwtable
define internal ptr @find_string(ptr noundef %0, ptr noundef %1, ptr noundef %2, ptr noundef %3, i32 noundef %4) #0 {
  %6 = alloca ptr, align 8
  %7 = alloca ptr, align 8
  %8 = alloca ptr, align 8
  %9 = alloca ptr, align 8
  %10 = alloca ptr, align 8
  %11 = alloca i32, align 4
  %12 = alloca i32, align 4
  %13 = alloca i64, align 8
  store ptr %0, ptr %7, align 8
  store ptr %1, ptr %8, align 8
  store ptr %2, ptr %9, align 8
  store ptr %3, ptr %10, align 8
  store i32 %4, ptr %11, align 4
  br label %14

14:                                               ; preds = %45, %5
  %15 = load ptr, ptr %9, align 8
  %16 = icmp ne ptr %15, null
  br i1 %16, label %17, label %47

17:                                               ; preds = %14
  store i32 0, ptr %12, align 4
  br label %18

18:                                               ; preds = %39, %17
  %19 = load i32, ptr %12, align 4
  %20 = load i32, ptr %11, align 4
  %21 = icmp slt i32 %19, %20
  br i1 %21, label %22, label %44

22:                                               ; preds = %18
  %23 = load ptr, ptr %9, align 8
  %24 = load ptr, ptr %23, align 8
  %25 = call i64 @strlen(ptr noundef %24) #5
  store i64 %25, ptr %13, align 8
  %26 = load ptr, ptr %9, align 8
  %27 = load ptr, ptr %26, align 8
  %28 = load ptr, ptr %7, align 8
  %29 = load i64, ptr %13, align 8
  %30 = call i32 @g_ascii_strncasecmp(ptr noundef %27, ptr noundef %28, i64 noundef %29)
  %31 = icmp eq i32 %30, 0
  br i1 %31, label %32, label %38

32:                                               ; preds = %22
  %33 = load i32, ptr %12, align 4
  %34 = load ptr, ptr %8, align 8
  store i32 %33, ptr %34, align 4
  %35 = load ptr, ptr %7, align 8
  %36 = load i64, ptr %13, align 8
  %37 = getelementptr i8, ptr %35, i64 %36
  store ptr %37, ptr %6, align 8
  br label %48

38:                                               ; preds = %22
  br label %39

39:                                               ; preds = %38
  %40 = load i32, ptr %12, align 4
  %41 = add i32 %40, 1
  store i32 %41, ptr %12, align 4
  %42 = load ptr, ptr %9, align 8
  %43 = getelementptr ptr, ptr %42, i32 1
  store ptr %43, ptr %9, align 8
  br label %18, !llvm.loop !13

44:                                               ; preds = %18
  br label %45

45:                                               ; preds = %44
  %46 = load ptr, ptr %10, align 8
  store ptr %46, ptr %9, align 8
  store ptr null, ptr %10, align 8
  br label %14, !llvm.loop !14

47:                                               ; preds = %14
  store ptr null, ptr %6, align 8
  br label %48

48:                                               ; preds = %47, %32
  %49 = load ptr, ptr %6, align 8
  ret ptr %49
}