; Function Attrs: nounwind uwtable
define internal fastcc noundef ptr @find_string(ptr noundef %0, ptr noundef writeonly captures(none) %1, ptr noundef readonly %2, ptr noundef readonly %3, i32 noundef range(i32 2, 13) %4) unnamed_addr #0 {
  %.not21 = icmp eq ptr %2, null
  br i1 %.not21, label %.loopexit17, label %.preheader

.loopexit:                                        ; preds = %13
  %.not = icmp eq ptr %.01622, null
  br i1 %.not, label %.loopexit17, label %.preheader, !llvm.loop !6

.preheader:                                       ; preds = %5, %.loopexit
  %.01523 = phi ptr [ %.01622, %.loopexit ], [ %2, %5 ]
  %.01622 = phi ptr [ null, %.loopexit ], [ %3, %5 ]
  br label %6

6:                                                ; preds = %.preheader, %13
  %.01420 = phi i32 [ 0, %.preheader ], [ %14, %13 ]
  %.119 = phi ptr [ %.01523, %.preheader ], [ %15, %13 ]
  %7 = load ptr, ptr %.119, align 8
  %8 = tail call i64 @strlen(ptr noundef nonnull dereferenceable(1) %7) #5
  %9 = tail call i32 @g_ascii_strncasecmp(ptr noundef nonnull %7, ptr noundef %0, i64 noundef %8) #4
  %10 = icmp eq i32 %9, 0
  br i1 %10, label %11, label %13

11:                                               ; preds = %6
  store i32 %.01420, ptr %1, align 4
  %12 = getelementptr i8, ptr %0, i64 %8
  br label %.loopexit17

13:                                               ; preds = %6
  %14 = add nuw nsw i32 %.01420, 1
  %15 = getelementptr i8, ptr %.119, i64 8
  %exitcond.not = icmp eq i32 %14, %4
  br i1 %exitcond.not, label %.loopexit, label %6, !llvm.loop !7

.loopexit17:                                      ; preds = %.loopexit, %5, %11
  %.0 = phi ptr [ %12, %11 ], [ null, %5 ], [ null, %.loopexit ]
  ret ptr %.0
}